target datalayout = "e-m:e-p270:32:32-p271:32:32-p272:64:64-i64:64-i128:128-f80:128-n8:16:32:64-S128"
target triple = "x86_64-pc-linux-gnu"

%struct.MPIR_PROCDESC = type { ptr, ptr, i32 }

@MPIR_proctable = external global ptr, align 8
@MPIR_proctable_size = external global i32, align 4
@.str.7 = private unnamed_addr constant [40 x i8] c"task:%d, host:%s, pid:%d, executable:%s\00", align 1

; Function Attrs: nounwind uwtable
define dso_local void @mpir_dump_proctable() #0 {
  %1 = alloca ptr, align 8
  %2 = alloca i32, align 4
  call void @llvm.lifetime.start.p0(i64 8, ptr %1) #8
  call void @llvm.lifetime.start.p0(i64 4, ptr %2) #8
  store i32 0, ptr %2, align 4
  br label %3

3:                                                ; preds = %32, %0
  %4 = load i32, ptr %2, align 4
  %5 = load i32, ptr @MPIR_proctable_size, align 4
  %6 = icmp slt i32 %4, %5
  br i1 %6, label %7, label %35

7:                                                ; preds = %3
  %8 = load ptr, ptr @MPIR_proctable, align 8
  %9 = load i32, ptr %2, align 4
  %10 = sext i32 %9 to i64
  %11 = getelementptr inbounds %struct.MPIR_PROCDESC, ptr %8, i64 %10
  store ptr %11, ptr %1, align 8
  br label %12

12:                                               ; preds = %7
  br label %13

13:                                               ; preds = %12
  %14 = call i32 @get_log_level()
  %15 = icmp sge i32 %14, 3
  br i1 %15, label %16, label %27

16:                                               ; preds = %13
  %17 = load i32, ptr %2, align 4
  %18 = load ptr, ptr %1, align 8
  %19 = getelementptr inbounds nuw %struct.MPIR_PROCDESC, ptr %18, i32 0, i32 0
  %20 = load ptr, ptr %19, align 8
  %21 = load ptr, ptr %1, align 8
  %22 = getelementptr inbounds nuw %struct.MPIR_PROCDESC, ptr %21, i32 0, i32 2
  %23 = load i32, ptr %22, align 8
  %24 = load ptr, ptr %1, align 8
  %25 = getelementptr inbounds nuw %struct.MPIR_PROCDESC, ptr %24, i32 0, i32 1
  %26 = load ptr, ptr %25, align 8
  call void (i32, ptr, ...) @log_var(i32 noundef 3, ptr noundef @.str.7, i32 noundef %17, ptr noundef %20, i32 noundef %23, ptr noundef %26)
  br label %27

27:                                               ; preds = %16, %13
  br label %28

28:                                               ; preds = %27
  br label %29

29:                                               ; preds = %28
  br label %30

30:                                               ; preds = %29
  br label %31

31:                                               ; preds = %30
  br label %32

32:                                               ; preds = %31
  %33 = load i32, ptr %2, align 4
  %34 = add nsw i32 %33, 1
  store i32 %34, ptr %2, align 4
  br label %3, !llvm.loop !18

35:                                               ; preds = %3
  call void @llvm.lifetime.end.p0(i64 4, ptr %2) #8
  call void @llvm.lifetime.end.p0(i64 8, ptr %1) #8
  ret void
}