; Function Attrs: nounwind uwtable
define dso_local void @mpir_dump_proctable() local_unnamed_addr #0 {
  %1 = load i32, ptr @MPIR_proctable_size, align 4
  %2 = icmp sgt i32 %1, 0
  br i1 %2, label %.lr.ph, label %._crit_edge

.lr.ph:                                           ; preds = %0, %14
  %indvars.iv = phi i64 [ %indvars.iv.next, %14 ], [ 0, %0 ]
  %3 = load ptr, ptr @MPIR_proctable, align 8
  %4 = tail call i32 @get_log_level() #9
  %5 = icmp sgt i32 %4, 2
  br i1 %5, label %6, label %14

6:                                                ; preds = %.lr.ph
  %7 = getelementptr inbounds nuw %struct.MPIR_PROCDESC, ptr %3, i64 %indvars.iv
  %8 = load ptr, ptr %7, align 8
  %9 = getelementptr inbounds nuw i8, ptr %7, i64 16
  %10 = load i32, ptr %9, align 8
  %11 = getelementptr inbounds nuw i8, ptr %7, i64 8
  %12 = load ptr, ptr %11, align 8
  %13 = trunc nuw nsw i64 %indvars.iv to i32
  tail call void (i32, ptr, ...) @log_var(i32 noundef 3, ptr noundef nonnull @.str.7, i32 noundef %13, ptr noundef %8, i32 noundef %10, ptr noundef %12) #9
  br label %14

14:                                               ; preds = %.lr.ph, %6
  %indvars.iv.next = add nuw nsw i64 %indvars.iv, 1
  %15 = load i32, ptr @MPIR_proctable_size, align 4
  %16 = sext i32 %15 to i64
  %17 = icmp slt i64 %indvars.iv.next, %16
  br i1 %17, label %.lr.ph, label %._crit_edge, !llvm.loop !17

._crit_edge:                                      ; preds = %14, %0
  ret void
}